; Function Attrs: nounwind uwtable
define dso_local range(i32 -1, 1) i32 @cgroup_p_step_addto(i32 noundef %0, ptr noundef readonly captures(none) %1, i32 noundef %2) local_unnamed_addr #0 {
  %4 = tail call i32 @getpid() #17
  %5 = icmp sgt i32 %2, 0
  br i1 %5, label %.lr.ph.preheader, label %._crit_edge

.lr.ph.preheader:                                 ; preds = %3
  %wide.trip.count = zext nneg i32 %2 to i64
  br label %.lr.ph

._crit_edge:                                      ; preds = %12, %3
  %.09.lcssa = phi i32 [ 0, %3 ], [ %.1, %12 ]
  ret i32 %.09.lcssa

.lr.ph:                                           ; preds = %.lr.ph.preheader, %12
  %indvars.iv = phi i64 [ 0, %.lr.ph.preheader ], [ %indvars.iv.next, %12 ]
  %.0911 = phi i32 [ 0, %.lr.ph.preheader ], [ %.1, %12 ]
  %6 = getelementptr inbounds nuw i32, ptr %1, i64 %indvars.iv
  %7 = load i32, ptr %6, align 4
  %8 = icmp eq i32 %7, %4
  br i1 %8, label %12, label %9

9:                                                ; preds = %.lr.ph
  %10 = load i32, ptr @task_special_id, align 4
  %11 = tail call i32 @cgroup_p_task_addto(i32 poison, ptr poison, i32 noundef %7, i32 noundef %10)
  %.not = icmp eq i32 %11, 0
  %spec.select = select i1 %.not, i32 %.0911, i32 -1
  br label %12

12:                                               ; preds = %9, %.lr.ph
  %.1 = phi i32 [ %.0911, %.lr.ph ], [ %spec.select, %9 ]
  %indvars.iv.next = add nuw nsw i64 %indvars.iv, 1
  %exitcond.not = icmp eq i64 %indvars.iv.next, %wide.trip.count
  br i1 %exitcond.not, label %._crit_edge, label %.lr.ph, !llvm.loop !25
}